target datalayout = "e-m:e-p270:32:32-p271:32:32-p272:64:64-i64:64-i128:128-f80:128-n8:16:32:64-S128"
target triple = "x86_64-pc-linux-gnu"

; Function Attrs: nounwind uwtable
define internal i32 @VP8LSubPixels(i32 noundef %0, i32 noundef %1) #0 {
  %3 = alloca i32, align 4
  %4 = alloca i32, align 4
  %5 = alloca i32, align 4
  %6 = alloca i32, align 4
  store i32 %0, ptr %3, align 4
  store i32 %1, ptr %4, align 4
  %7 = load i32, ptr %3, align 4
  %8 = and i32 %7, -16711936
  %9 = add i32 16711935, %8
  %10 = load i32, ptr %4, align 4
  %11 = and i32 %10, -16711936
  %12 = sub i32 %9, %11
  store i32 %12, ptr %5, align 4
  %13 = load i32, ptr %3, align 4
  %14 = and i32 %13, 16711935
  %15 = add i32 -16711936, %14
  %16 = load i32, ptr %4, align 4
  %17 = and i32 %16, 16711935
  %18 = sub i32 %15, %17
  store i32 %18, ptr %6, align 4
  %19 = load i32, ptr %5, align 4
  %20 = and i32 %19, -16711936
  %21 = load i32, ptr %6, align 4
  %22 = and i32 %21, 16711935
  %23 = or i32 %20, %22
  ret i32 %23
}

; Function Attrs: nounwind uwtable
define internal void @PredictorSub1_C(ptr noundef %0, ptr noundef %1, i32 noundef %2, ptr noundef %3) #0 {
  %5 = alloca ptr, align 8
  %6 = alloca ptr, align 8
  %7 = alloca i32, align 4
  %8 = alloca ptr, align 8
  %9 = alloca i32, align 4
  store ptr %0, ptr %5, align 8
  store ptr %1, ptr %6, align 8
  store i32 %2, ptr %7, align 4
  store ptr %3, ptr %8, align 8
  store i32 0, ptr %9, align 4
  br label %10

10:                                               ; preds = %31, %4
  %11 = load i32, ptr %9, align 4
  %12 = load i32, ptr %7, align 4
  %13 = icmp slt i32 %11, %12
  br i1 %13, label %14, label %34

14:                                               ; preds = %10
  %15 = load ptr, ptr %5, align 8
  %16 = load i32, ptr %9, align 4
  %17 = sext i32 %16 to i64
  %18 = getelementptr inbounds i32, ptr %15, i64 %17
  %19 = load i32, ptr %18, align 4
  %20 = load ptr, ptr %5, align 8
  %21 = load i32, ptr %9, align 4
  %22 = sub nsw i32 %21, 1
  %23 = sext i32 %22 to i64
  %24 = getelementptr inbounds i32, ptr %20, i64 %23
  %25 = load i32, ptr %24, align 4
  %26 = call i32 @VP8LSubPixels(i32 noundef %19, i32 noundef %25)
  %27 = load ptr, ptr %8, align 8
  %28 = load i32, ptr %9, align 4
  %29 = sext i32 %28 to i64
  %30 = getelementptr inbounds i32, ptr %27, i64 %29
  store i32 %26, ptr %30, align 4
  br label %31

31:                                               ; preds = %14
  %32 = load i32, ptr %9, align 4
  %33 = add nsw i32 %32, 1
  store i32 %33, ptr %9, align 4
  br label %10, !llvm.loop !25

34:                                               ; preds = %10
  ret void
}